SF:/Users/aleksandrkireev/Apps/timeline-studio/src-tauri/src/language.rs
FN:44,_RNvNtCsh9FG4BJPMnO_19timeline_studio_lib8language16get_app_language
FN:56,_RNvNtCsh9FG4BJPMnO_19timeline_studio_lib8language16set_app_language
FN:19,_RNvNtCsh9FG4BJPMnO_19timeline_studio_lib8language19get_system_language
FN:38,_RNvNtCsh9FG4BJPMnO_19timeline_studio_lib8language21is_supported_language
FN:10,_RNCNvNtCsh9FG4BJPMnO_19timeline_studio_lib8language12APP_LANGUAGE0B5_
FN:10,_RNCNvNtCsapJWAa2nNLP_19timeline_studio_lib8language12APP_LANGUAGE0B5_
FN:44,_RNvNtCsapJWAa2nNLP_19timeline_studio_lib8language16get_app_language
FN:56,_RNvNtCsapJWAa2nNLP_19timeline_studio_lib8language16set_app_language
FN:19,_RNvNtCsapJWAa2nNLP_19timeline_studio_lib8language19get_system_language
FN:38,_RNvNtCsapJWAa2nNLP_19timeline_studio_lib8language21is_supported_language
FNDA:0,_RNvNtCsh9FG4BJPMnO_19timeline_studio_lib8language16get_app_language
FNDA:0,_RNvNtCsh9FG4BJPMnO_19timeline_studio_lib8language16set_app_language
FNDA:0,_RNvNtCsh9FG4BJPMnO_19timeline_studio_lib8language19get_system_language
FNDA:0,_RNvNtCsh9FG4BJPMnO_19timeline_studio_lib8language21is_supported_language
FNDA:0,_RNCNvNtCsh9FG4BJPMnO_19timeline_studio_lib8language12APP_LANGUAGE0B5_
FNDA:0,_RNCNvNtCsapJWAa2nNLP_19timeline_studio_lib8language12APP_LANGUAGE0B5_
FNDA:0,_RNvNtCsapJWAa2nNLP_19timeline_studio_lib8language16get_app_language
FNDA:0,_RNvNtCsapJWAa2nNLP_19timeline_studio_lib8language16set_app_language
FNDA:0,_RNvNtCsapJWAa2nNLP_19timeline_studio_lib8language19get_system_language
FNDA:0,_RNvNtCsapJWAa2nNLP_19timeline_studio_lib8language21is_supported_language
FNF:5
FNH:0
DA:10,0
DA:19,0
DA:21,0
DA:22,0
DA:23,0
DA:27,0
DA:28,0
DA:29,0
DA:30,0
DA:31,0
DA:33,0
DA:35,0
DA:38,0
DA:39,0
DA:40,0
DA:44,0
DA:45,0
DA:46,0
DA:47,0
DA:48,0
DA:49,0
DA:50,0
DA:51,0
DA:52,0
DA:56,0
DA:57,0
DA:58,0
DA:59,0
DA:60,0
DA:61,0
DA:62,0
DA:63,0
DA:64,0
DA:65,0
DA:66,0
DA:67,0
DA:68,0
DA:69,0
DA:70,0
BRF:0
BRH:0
LF:39
LH:0
end_of_record
SF:/Users/aleksandrkireev/Apps/timeline-studio/src-tauri/src/lib.rs
FN:20,_RNvCsh9FG4BJPMnO_19timeline_studio_lib3run
FN:13,_RNvCsh9FG4BJPMnO_19timeline_studio_lib5greet
FN:20,_RNvCsapJWAa2nNLP_19timeline_studio_lib3run
FN:13,_RNvCsapJWAa2nNLP_19timeline_studio_lib5greet
FNDA:0,_RNvCsh9FG4BJPMnO_19timeline_studio_lib3run
FNDA:0,_RNvCsh9FG4BJPMnO_19timeline_studio_lib5greet
FNDA:0,_RNvCsapJWAa2nNLP_19timeline_studio_lib3run
FNDA:0,_RNvCsapJWAa2nNLP_19timeline_studio_lib5greet
FNF:2
FNH:0
DA:13,0
DA:14,0
DA:15,0
DA:16,0
DA:17,0
DA:20,0
DA:21,0
DA:22,0
DA:23,0
DA:24,0
DA:25,0
DA:26,0
DA:27,0
DA:28,0
DA:29,0
DA:30,0
DA:31,0
DA:32,0
DA:33,0
DA:34,0
DA:35,0
DA:36,0
DA:37,0
DA:38,0
DA:39,0
BRF:0
BRH:0
LF:25
LH:0
end_of_record
SF:/Users/aleksandrkireev/Apps/timeline-studio/src-tauri/src/main.rs
FN:4,_RNvCs5Uc0tkzCfaN_15timeline_studio4main
FNDA:0,_RNvCs5Uc0tkzCfaN_15timeline_studio4main
FNF:1
FNH:0
DA:4,0
DA:5,0
DA:6,0
BRF:0
BRH:0
LF:3
LH:0
end_of_record
SF:/Users/aleksandrkireev/Apps/timeline-studio/src-tauri/src/media.rs
FN:338,_RNCNvNtCsh9FG4BJPMnO_19timeline_studio_lib5media15get_media_files0B5_
FN:347,_RNCNvNtCsh9FG4BJPMnO_19timeline_studio_lib5media15get_media_filess_0B5_
FN:133,_RNCNvNtCsh9FG4BJPMnO_19timeline_studio_lib5media18get_media_metadata0B5_
FN:140,_RNCNvNtCsh9FG4BJPMnO_19timeline_studio_lib5media18get_media_metadatas0_0B5_
FN:145,_RNCNvNtCsh9FG4BJPMnO_19timeline_studio_lib5media18get_media_metadatas1_0B5_
FN:171,_RNCNvNtCsh9FG4BJPMnO_19timeline_studio_lib5media18get_media_metadatas2_0B5_
FN:172,_RNCNvNtCsh9FG4BJPMnO_19timeline_studio_lib5media18get_media_metadatas3_0B5_
FN:176,_RNCNvNtCsh9FG4BJPMnO_19timeline_studio_lib5media18get_media_metadatas4_0B5_
FN:177,_RNCNvNtCsh9FG4BJPMnO_19timeline_studio_lib5media18get_media_metadatas5_0B5_
FN:181,_RNCNvNtCsh9FG4BJPMnO_19timeline_studio_lib5media18get_media_metadatas6_0B5_
FN:186,_RNCNvNtCsh9FG4BJPMnO_19timeline_studio_lib5media18get_media_metadatas7_0B5_
FN:193,_RNCNvNtCsh9FG4BJPMnO_19timeline_studio_lib5media18get_media_metadatas8_0B5_
FN:194,_RNCNvNtCsh9FG4BJPMnO_19timeline_studio_lib5media18get_media_metadatas9_0B5_
FN:136,_RNCNvNtCsh9FG4BJPMnO_19timeline_studio_lib5media18get_media_metadatas_0B5_
FN:199,_RNCNvNtCsh9FG4BJPMnO_19timeline_studio_lib5media18get_media_metadatasa_0B5_
FN:205,_RNCNvNtCsh9FG4BJPMnO_19timeline_studio_lib5media18get_media_metadatasb_0B5_
FN:210,_RNCNvNtCsh9FG4BJPMnO_19timeline_studio_lib5media18get_media_metadatasc_0B5_
FN:211,_RNCNvNtCsh9FG4BJPMnO_19timeline_studio_lib5media18get_media_metadatasd_0B5_
FN:215,_RNCNvNtCsh9FG4BJPMnO_19timeline_studio_lib5media18get_media_metadatase_0B5_
FN:216,_RNCNvNtCsh9FG4BJPMnO_19timeline_studio_lib5media18get_media_metadatasf_0B5_
FN:220,_RNCNvNtCsh9FG4BJPMnO_19timeline_studio_lib5media18get_media_metadatasg_0B5_
FN:225,_RNCNvNtCsh9FG4BJPMnO_19timeline_studio_lib5media18get_media_metadatash_0B5_
FN:230,_RNCNvNtCsh9FG4BJPMnO_19timeline_studio_lib5media18get_media_metadatasi_0B5_
FN:235,_RNCNvNtCsh9FG4BJPMnO_19timeline_studio_lib5media18get_media_metadatasj_0B5_
FN:236,_RNCNvNtCsh9FG4BJPMnO_19timeline_studio_lib5media18get_media_metadatask_0B5_
FN:240,_RNCNvNtCsh9FG4BJPMnO_19timeline_studio_lib5media18get_media_metadatasl_0B5_
FN:247,_RNCNvNtCsh9FG4BJPMnO_19timeline_studio_lib5media18get_media_metadatasm_0B5_
FN:248,_RNCNvNtCsh9FG4BJPMnO_19timeline_studio_lib5media18get_media_metadatasn_0B5_
FN:283,_RNCNvNtCsh9FG4BJPMnO_19timeline_studio_lib5media18get_media_metadataso_0B5_
FN:284,_RNCNvNtCsh9FG4BJPMnO_19timeline_studio_lib5media18get_media_metadatasp_0B5_
FN:307,_RNCNvNtCsh9FG4BJPMnO_19timeline_studio_lib5media18get_media_metadatasq_0B5_
FN:101,_RNvNtCsh9FG4BJPMnO_19timeline_studio_lib5media12check_ffmpeg
FN:331,_RNvNtCsh9FG4BJPMnO_19timeline_studio_lib5media15get_media_files
FN:112,_RNvNtCsh9FG4BJPMnO_19timeline_studio_lib5media18get_media_metadata
FN:338,_RNCNvNtCsapJWAa2nNLP_19timeline_studio_lib5media15get_media_files0B5_
FN:347,_RNCNvNtCsapJWAa2nNLP_19timeline_studio_lib5media15get_media_filess_0B5_
FN:133,_RNCNvNtCsapJWAa2nNLP_19timeline_studio_lib5media18get_media_metadata0B5_
FN:140,_RNCNvNtCsapJWAa2nNLP_19timeline_studio_lib5media18get_media_metadatas0_0B5_
FN:145,_RNCNvNtCsapJWAa2nNLP_19timeline_studio_lib5media18get_media_metadatas1_0B5_
FN:171,_RNCNvNtCsapJWAa2nNLP_19timeline_studio_lib5media18get_media_metadatas2_0B5_
FN:172,_RNCNvNtCsapJWAa2nNLP_19timeline_studio_lib5media18get_media_metadatas3_0B5_
FN:176,_RNCNvNtCsapJWAa2nNLP_19timeline_studio_lib5media18get_media_metadatas4_0B5_
FN:177,_RNCNvNtCsapJWAa2nNLP_19timeline_studio_lib5media18get_media_metadatas5_0B5_
FN:181,_RNCNvNtCsapJWAa2nNLP_19timeline_studio_lib5media18get_media_metadatas6_0B5_
FN:186,_RNCNvNtCsapJWAa2nNLP_19timeline_studio_lib5media18get_media_metadatas7_0B5_
FN:193,_RNCNvNtCsapJWAa2nNLP_19timeline_studio_lib5media18get_media_metadatas8_0B5_
FN:194,_RNCNvNtCsapJWAa2nNLP_19timeline_studio_lib5media18get_media_metadatas9_0B5_
FN:136,_RNCNvNtCsapJWAa2nNLP_19timeline_studio_lib5media18get_media_metadatas_0B5_
FN:199,_RNCNvNtCsapJWAa2nNLP_19timeline_studio_lib5media18get_media_metadatasa_0B5_
FN:205,_RNCNvNtCsapJWAa2nNLP_19timeline_studio_lib5media18get_media_metadatasb_0B5_
FN:210,_RNCNvNtCsapJWAa2nNLP_19timeline_studio_lib5media18get_media_metadatasc_0B5_
FN:211,_RNCNvNtCsapJWAa2nNLP_19timeline_studio_lib5media18get_media_metadatasd_0B5_
FN:215,_RNCNvNtCsapJWAa2nNLP_19timeline_studio_lib5media18get_media_metadatase_0B5_
FN:216,_RNCNvNtCsapJWAa2nNLP_19timeline_studio_lib5media18get_media_metadatasf_0B5_
FN:220,_RNCNvNtCsapJWAa2nNLP_19timeline_studio_lib5media18get_media_metadatasg_0B5_
FN:225,_RNCNvNtCsapJWAa2nNLP_19timeline_studio_lib5media18get_media_metadatash_0B5_
FN:230,_RNCNvNtCsapJWAa2nNLP_19timeline_studio_lib5media18get_media_metadatasi_0B5_
FN:235,_RNCNvNtCsapJWAa2nNLP_19timeline_studio_lib5media18get_media_metadatasj_0B5_
FN:236,_RNCNvNtCsapJWAa2nNLP_19timeline_studio_lib5media18get_media_metadatask_0B5_
FN:240,_RNCNvNtCsapJWAa2nNLP_19timeline_studio_lib5media18get_media_metadatasl_0B5_
FN:247,_RNCNvNtCsapJWAa2nNLP_19timeline_studio_lib5media18get_media_metadatasm_0B5_
FN:248,_RNCNvNtCsapJWAa2nNLP_19timeline_studio_lib5media18get_media_metadatasn_0B5_
FN:283,_RNCNvNtCsapJWAa2nNLP_19timeline_studio_lib5media18get_media_metadataso_0B5_
FN:284,_RNCNvNtCsapJWAa2nNLP_19timeline_studio_lib5media18get_media_metadatasp_0B5_
FN:307,_RNCNvNtCsapJWAa2nNLP_19timeline_studio_lib5media18get_media_metadatasq_0B5_
FN:101,_RNvNtCsapJWAa2nNLP_19timeline_studio_lib5media12check_ffmpeg
FN:331,_RNvNtCsapJWAa2nNLP_19timeline_studio_lib5media15get_media_files
FN:112,_RNvNtCsapJWAa2nNLP_19timeline_studio_lib5media18get_media_metadata
FNDA:0,_RNCNvNtCsh9FG4BJPMnO_19timeline_studio_lib5media15get_media_files0B5_
FNDA:0,_RNCNvNtCsh9FG4BJPMnO_19timeline_studio_lib5media15get_media_filess_0B5_
FNDA:0,_RNCNvNtCsh9FG4BJPMnO_19timeline_studio_lib5media18get_media_metadata0B5_
FNDA:0,_RNCNvNtCsh9FG4BJPMnO_19timeline_studio_lib5media18get_media_metadatas0_0B5_
FNDA:0,_RNCNvNtCsh9FG4BJPMnO_19timeline_studio_lib5media18get_media_metadatas1_0B5_
FNDA:0,_RNCNvNtCsh9FG4BJPMnO_19timeline_studio_lib5media18get_media_metadatas2_0B5_
FNDA:0,_RNCNvNtCsh9FG4BJPMnO_19timeline_studio_lib5media18get_media_metadatas3_0B5_
FNDA:0,_RNCNvNtCsh9FG4BJPMnO_19timeline_studio_lib5media18get_media_metadatas4_0B5_
FNDA:0,_RNCNvNtCsh9FG4BJPMnO_19timeline_studio_lib5media18get_media_metadatas5_0B5_
FNDA:0,_RNCNvNtCsh9FG4BJPMnO_19timeline_studio_lib5media18get_media_metadatas6_0B5_
FNDA:0,_RNCNvNtCsh9FG4BJPMnO_19timeline_studio_lib5media18get_media_metadatas7_0B5_
FNDA:0,_RNCNvNtCsh9FG4BJPMnO_19timeline_studio_lib5media18get_media_metadatas8_0B5_
FNDA:0,_RNCNvNtCsh9FG4BJPMnO_19timeline_studio_lib5media18get_media_metadatas9_0B5_
FNDA:0,_RNCNvNtCsh9FG4BJPMnO_19timeline_studio_lib5media18get_media_metadatas_0B5_
FNDA:0,_RNCNvNtCsh9FG4BJPMnO_19timeline_studio_lib5media18get_media_metadatasa_0B5_
FNDA:0,_RNCNvNtCsh9FG4BJPMnO_19timeline_studio_lib5media18get_media_metadatasb_0B5_
FNDA:0,_RNCNvNtCsh9FG4BJPMnO_19timeline_studio_lib5media18get_media_metadatasc_0B5_
FNDA:0,_RNCNvNtCsh9FG4BJPMnO_19timeline_studio_lib5media18get_media_metadatasd_0B5_
FNDA:0,_RNCNvNtCsh9FG4BJPMnO_19timeline_studio_lib5media18get_media_metadatase_0B5_
FNDA:0,_RNCNvNtCsh9FG4BJPMnO_19timeline_studio_lib5media18get_media_metadatasf_0B5_
FNDA:0,_RNCNvNtCsh9FG4BJPMnO_19timeline_studio_lib5media18get_media_metadatasg_0B5_
FNDA:0,_RNCNvNtCsh9FG4BJPMnO_19timeline_studio_lib5media18get_media_metadatash_0B5_
FNDA:0,_RNCNvNtCsh9FG4BJPMnO_19timeline_studio_lib5media18get_media_metadatasi_0B5_
FNDA:0,_RNCNvNtCsh9FG4BJPMnO_19timeline_studio_lib5media18get_media_metadatasj_0B5_
FNDA:0,_RNCNvNtCsh9FG4BJPMnO_19timeline_studio_lib5media18get_media_metadatask_0B5_
FNDA:0,_RNCNvNtCsh9FG4BJPMnO_19timeline_studio_lib5media18get_media_metadatasl_0B5_
FNDA:0,_RNCNvNtCsh9FG4BJPMnO_19timeline_studio_lib5media18get_media_metadatasm_0B5_
FNDA:0,_RNCNvNtCsh9FG4BJPMnO_19timeline_studio_lib5media18get_media_metadatasn_0B5_
FNDA:0,_RNCNvNtCsh9FG4BJPMnO_19timeline_studio_lib5media18get_media_metadataso_0B5_
FNDA:0,_RNCNvNtCsh9FG4BJPMnO_19timeline_studio_lib5media18get_media_metadatasp_0B5_
FNDA:0,_RNCNvNtCsh9FG4BJPMnO_19timeline_studio_lib5media18get_media_metadatasq_0B5_
FNDA:0,_RNvNtCsh9FG4BJPMnO_19timeline_studio_lib5media12check_ffmpeg
FNDA:0,_RNvNtCsh9FG4BJPMnO_19timeline_studio_lib5media15get_media_files
FNDA:0,_RNvNtCsh9FG4BJPMnO_19timeline_studio_lib5media18get_media_metadata
FNDA:0,_RNCNvNtCsapJWAa2nNLP_19timeline_studio_lib5media15get_media_files0B5_
FNDA:0,_RNCNvNtCsapJWAa2nNLP_19timeline_studio_lib5media15get_media_filess_0B5_
FNDA:0,_RNCNvNtCsapJWAa2nNLP_19timeline_studio_lib5media18get_media_metadata0B5_
FNDA:0,_RNCNvNtCsapJWAa2nNLP_19timeline_studio_lib5media18get_media_metadatas0_0B5_
FNDA:0,_RNCNvNtCsapJWAa2nNLP_19timeline_studio_lib5media18get_media_metadatas1_0B5_
FNDA:0,_RNCNvNtCsapJWAa2nNLP_19timeline_studio_lib5media18get_media_metadatas2_0B5_
FNDA:0,_RNCNvNtCsapJWAa2nNLP_19timeline_studio_lib5media18get_media_metadatas3_0B5_
FNDA:0,_RNCNvNtCsapJWAa2nNLP_19timeline_studio_lib5media18get_media_metadatas4_0B5_
FNDA:0,_RNCNvNtCsapJWAa2nNLP_19timeline_studio_lib5media18get_media_metadatas5_0B5_
FNDA:0,_RNCNvNtCsapJWAa2nNLP_19timeline_studio_lib5media18get_media_metadatas6_0B5_
FNDA:0,_RNCNvNtCsapJWAa2nNLP_19timeline_studio_lib5media18get_media_metadatas7_0B5_
FNDA:0,_RNCNvNtCsapJWAa2nNLP_19timeline_studio_lib5media18get_media_metadatas8_0B5_
FNDA:0,_RNCNvNtCsapJWAa2nNLP_19timeline_studio_lib5media18get_media_metadatas9_0B5_
FNDA:0,_RNCNvNtCsapJWAa2nNLP_19timeline_studio_lib5media18get_media_metadatas_0B5_
FNDA:0,_RNCNvNtCsapJWAa2nNLP_19timeline_studio_lib5media18get_media_metadatasa_0B5_
FNDA:0,_RNCNvNtCsapJWAa2nNLP_19timeline_studio_lib5media18get_media_metadatasb_0B5_
FNDA:0,_RNCNvNtCsapJWAa2nNLP_19timeline_studio_lib5media18get_media_metadatasc_0B5_
FNDA:0,_RNCNvNtCsapJWAa2nNLP_19timeline_studio_lib5media18get_media_metadatasd_0B5_
FNDA:0,_RNCNvNtCsapJWAa2nNLP_19timeline_studio_lib5media18get_media_metadatase_0B5_
FNDA:0,_RNCNvNtCsapJWAa2nNLP_19timeline_studio_lib5media18get_media_metadatasf_0B5_
FNDA:0,_RNCNvNtCsapJWAa2nNLP_19timeline_studio_lib5media18get_media_metadatasg_0B5_
FNDA:0,_RNCNvNtCsapJWAa2nNLP_19timeline_studio_lib5media18get_media_metadatash_0B5_
FNDA:0,_RNCNvNtCsapJWAa2nNLP_19timeline_studio_lib5media18get_media_metadatasi_0B5_
FNDA:0,_RNCNvNtCsapJWAa2nNLP_19timeline_studio_lib5media18get_media_metadatasj_0B5_
FNDA:0,_RNCNvNtCsapJWAa2nNLP_19timeline_studio_lib5media18get_media_metadatask_0B5_
FNDA:0,_RNCNvNtCsapJWAa2nNLP_19timeline_studio_lib5media18get_media_metadatasl_0B5_
FNDA:0,_RNCNvNtCsapJWAa2nNLP_19timeline_studio_lib5media18get_media_metadatasm_0B5_
FNDA:0,_RNCNvNtCsapJWAa2nNLP_19timeline_studio_lib5media18get_media_metadatasn_0B5_
FNDA:0,_RNCNvNtCsapJWAa2nNLP_19timeline_studio_lib5media18get_media_metadataso_0B5_
FNDA:0,_RNCNvNtCsapJWAa2nNLP_19timeline_studio_lib5media18get_media_metadatasp_0B5_
FNDA:0,_RNCNvNtCsapJWAa2nNLP_19timeline_studio_lib5media18get_media_metadatasq_0B5_
FNDA:0,_RNvNtCsapJWAa2nNLP_19timeline_studio_lib5media12check_ffmpeg
FNDA:0,_RNvNtCsapJWAa2nNLP_19timeline_studio_lib5media15get_media_files
FNDA:0,_RNvNtCsapJWAa2nNLP_19timeline_studio_lib5media18get_media_metadata
FNF:34
FNH:0
DA:101,0
DA:102,0
DA:103,0
DA:104,0
DA:105,0
DA:106,0
DA:108,0
DA:112,0
DA:113,0
DA:114,0
DA:117,0
DA:118,0
DA:119,0
DA:122,0
DA:123,0
DA:124,0
DA:125,0
DA:126,0
DA:127,0
DA:128,0
DA:129,0
DA:130,0
DA:131,0
DA:132,0
DA:133,0
DA:135,0
DA:136,0
DA:139,0
DA:140,0
DA:143,0
DA:144,0
DA:145,0
DA:146,0
DA:147,0
DA:148,0
DA:149,0
DA:150,0
DA:151,0
DA:152,0
DA:153,0
DA:154,0
DA:155,0
DA:156,0
DA:157,0
DA:158,0
DA:159,0
DA:160,0
DA:161,0
DA:162,0
DA:163,0
DA:164,0
DA:165,0
DA:167,0
DA:169,0
DA:170,0
DA:171,0
DA:172,0
DA:173,0
DA:174,0
DA:175,0
DA:176,0
DA:177,0
DA:178,0
DA:179,0
DA:180,0
DA:181,0
DA:182,0
DA:183,0
DA:184,0
DA:185,0
DA:186,0
DA:187,0
DA:190,0
DA:191,0
DA:192,0
DA:193,0
DA:194,0
DA:195,0
DA:196,0
DA:197,0
DA:198,0
DA:199,0
DA:200,0
DA:201,0
DA:202,0
DA:203,0
DA:204,0
DA:205,0
DA:206,0
DA:207,0
DA:208,0
DA:209,0
DA:210,0
DA:211,0
DA:212,0
DA:213,0
DA:214,0
DA:215,0
DA:216,0
DA:217,0
DA:218,0
DA:219,0
DA:220,0
DA:221,0
DA:222,0
DA:223,0
DA:224,0
DA:225,0
DA:226,0
DA:227,0
DA:228,0
DA:229,0
DA:230,0
DA:231,0
DA:232,0
DA:233,0
DA:234,0
DA:235,0
DA:236,0
DA:237,0
DA:238,0
DA:239,0
DA:240,0
DA:241,0
DA:242,0
DA:243,0
DA:244,0
DA:245,0
DA:246,0
DA:247,0
DA:248,0
DA:249,0
DA:250,0
DA:251,0
DA:252,0
DA:253,0
DA:254,0
DA:257,0
DA:258,0
DA:259,0
DA:260,0
DA:261,0
DA:262,0
DA:263,0
DA:264,0
DA:265,0
DA:266,0
DA:267,0
DA:268,0
DA:272,0
DA:273,0
DA:274,0
DA:275,0
DA:276,0
DA:277,0
DA:280,0
DA:281,0
DA:282,0
DA:283,0
DA:284,0
DA:285,0
DA:287,0
DA:291,0
DA:292,0
DA:293,0
DA:294,0
DA:295,0
DA:296,0
DA:297,0
DA:298,0
DA:299,0
DA:300,0
DA:301,0
DA:302,0
DA:303,0
DA:304,0
DA:305,0
DA:306,0
DA:307,0
DA:308,0
DA:309,0
DA:310,0
DA:311,0
DA:312,0
DA:313,0
DA:314,0
DA:315,0
DA:316,0
DA:317,0
DA:318,0
DA:319,0
DA:320,0
DA:321,0
DA:322,0
DA:323,0
DA:324,0
DA:325,0
DA:326,0
DA:327,0
DA:331,0
DA:332,0
DA:333,0
DA:334,0
DA:335,0
DA:336,0
DA:338,0
DA:340,0
DA:342,0
DA:343,0
DA:344,0
DA:345,0
DA:346,0
DA:347,0
DA:349,0
DA:350,0
DA:351,0
DA:352,0
DA:353,0
DA:354,0
DA:356,0
DA:357,0
DA:358,0
DA:359,0
DA:360,0
DA:361,0
DA:364,0
DA:365,0
BRF:0
BRH:0
LF:259
LH:0
end_of_record